; ModuleID = '62/1503.c'
source_filename = "62/1503.c"
target datalayout = "e-m:e-p270:32:32-p271:32:32-p272:64:64-i64:64-f80:128-n8:16:32:64-S128"
target triple = "x86_64-pc-linux-gnu"

@.str = private unnamed_addr constant [3 x i8] c"%c\00", align 1

; Function Attrs: noinline nounwind uwtable
define dso_local void @main() #0 {
  %1 = alloca i8*, align 8
  %2 = alloca i8*, align 8
  %3 = alloca i32, align 4
  %4 = alloca i32, align 4
  %5 = alloca i32, align 4
  %6 = alloca i32, align 4
  %7 = alloca i32, align 4
  store i32 0, i32* %3, align 4
  store i32 -2, i32* %4, align 4
  %8 = call noalias i8* @calloc(i64 1000, i64 1) #3
  store i8* %8, i8** %1, align 8
  %9 = load i8*, i8** %1, align 8
  %10 = call i32 (i8*, ...) bitcast (i32 (...)* @gets to i32 (i8*, ...)*)(i8* %9)
  %11 = load i8*, i8** %1, align 8
  store i8* %11, i8** %2, align 8
  br label %12

12:                                               ; preds = %20, %0
  %13 = load i8*, i8** %2, align 8
  %14 = load i8, i8* %13, align 1
  %15 = sext i8 %14 to i32
  %16 = icmp ne i32 %15, 0
  br i1 %16, label %17, label %23

17:                                               ; preds = %12
  %18 = load i32, i32* %3, align 4
  %19 = add nsw i32 %18, 1
  store i32 %19, i32* %3, align 4
  br label %20

20:                                               ; preds = %17
  %21 = load i8*, i8** %2, align 8
  %22 = getelementptr inbounds i8, i8* %21, i32 1
  store i8* %22, i8** %2, align 8
  br label %12

23:                                               ; preds = %12
  %24 = load i8*, i8** %1, align 8
  store i8* %24, i8** %2, align 8
  store i32 0, i32* %6, align 4
  br label %25

25:                                               ; preds = %72, %23
  %26 = load i32, i32* %6, align 4
  %27 = load i32, i32* %3, align 4
  %28 = icmp slt i32 %26, %27
  br i1 %28, label %29, label %75

29:                                               ; preds = %25
  %30 = load i8*, i8** %2, align 8
  %31 = load i32, i32* %6, align 4
  %32 = sext i32 %31 to i64
  %33 = getelementptr inbounds i8, i8* %30, i64 %32
  %34 = load i8, i8* %33, align 1
  %35 = sext i8 %34 to i32
  %36 = icmp eq i32 %35, 32
  br i1 %36, label %37, label %71

37:                                               ; preds = %29
  %38 = load i32, i32* %6, align 4
  %39 = load i32, i32* %4, align 4
  %40 = sub nsw i32 %38, %39
  store i32 %40, i32* %5, align 4
  %41 = load i32, i32* %6, align 4
  store i32 %41, i32* %4, align 4
  %42 = load i32, i32* %5, align 4
  %43 = icmp eq i32 %42, 1
  br i1 %43, label %44, label %70

44:                                               ; preds = %37
  %45 = load i32, i32* %6, align 4
  store i32 %45, i32* %7, align 4
  br label %46

46:                                               ; preds = %62, %44
  %47 = load i32, i32* %7, align 4
  %48 = load i32, i32* %3, align 4
  %49 = sub nsw i32 %48, 1
  %50 = icmp slt i32 %47, %49
  br i1 %50, label %51, label %65

51:                                               ; preds = %46
  %52 = load i8*, i8** %2, align 8
  %53 = load i32, i32* %7, align 4
  %54 = sext i32 %53 to i64
  %55 = getelementptr inbounds i8, i8* %52, i64 %54
  %56 = getelementptr inbounds i8, i8* %55, i64 1
  %57 = load i8, i8* %56, align 1
  %58 = load i8*, i8** %2, align 8
  %59 = load i32, i32* %7, align 4
  %60 = sext i32 %59 to i64
  %61 = getelementptr inbounds i8, i8* %58, i64 %60
  store i8 %57, i8* %61, align 1
  br label %62

62:                                               ; preds = %51
  %63 = load i32, i32* %7, align 4
  %64 = add nsw i32 %63, 1
  store i32 %64, i32* %7, align 4
  br label %46

65:                                               ; preds = %46
  %66 = load i32, i32* %3, align 4
  %67 = sub nsw i32 %66, 1
  store i32 %67, i32* %3, align 4
  %68 = load i32, i32* %6, align 4
  %69 = sub nsw i32 %68, 2
  store i32 %69, i32* %6, align 4
  br label %70

70:                                               ; preds = %65, %37
  br label %71

71:                                               ; preds = %70, %29
  br label %72

72:                                               ; preds = %71
  %73 = load i32, i32* %6, align 4
  %74 = add nsw i32 %73, 1
  store i32 %74, i32* %6, align 4
  br label %25

75:                                               ; preds = %25
  %76 = load i8*, i8** %1, align 8
  store i8* %76, i8** %2, align 8
  br label %77

77:                                               ; preds = %89, %75
  %78 = load i8*, i8** %2, align 8
  %79 = load i8*, i8** %1, align 8
  %80 = load i32, i32* %3, align 4
  %81 = sext i32 %80 to i64
  %82 = getelementptr inbounds i8, i8* %79, i64 %81
  %83 = icmp ult i8* %78, %82
  br i1 %83, label %84, label %92

84:                                               ; preds = %77
  %85 = load i8*, i8** %2, align 8
  %86 = load i8, i8* %85, align 1
  %87 = sext i8 %86 to i32
  %88 = call i32 (i8*, ...) @printf(i8* getelementptr inbounds ([3 x i8], [3 x i8]* @.str, i64 0, i64 0), i32 %87)
  br label %89

89:                                               ; preds = %84
  %90 = load i8*, i8** %2, align 8
  %91 = getelementptr inbounds i8, i8* %90, i32 1
  store i8* %91, i8** %2, align 8
  br label %77

92:                                               ; preds = %77
  %93 = load i8*, i8** %1, align 8
  call void @free(i8* %93) #3
  ret void
}

; Function Attrs: nounwind
declare dso_local noalias i8* @calloc(i64, i64) #1

declare dso_local i32 @gets(...) #2

declare dso_local i32 @printf(i8*, ...) #2

; Function Attrs: nounwind
declare dso_local void @free(i8*) #1


!llvm.module.flags = !{!0}
!llvm.ident = !{!1}

!0 = !{i32 1, !"wchar_size", i32 4}
!1 = !{!"clang version 10.0.0-4ubuntu1 "}
